target datalayout = "e-m:e-p270:32:32-p271:32:32-p272:64:64-i64:64-i128:128-f80:128-n8:16:32:64-S128"
target triple = "x86_64-pc-linux-gnu"

%struct.SwsColor = type { i32, i32, %struct.AVPrimaryCoefficients, %struct.AVRational, %struct.AVRational, %struct.AVRational, %struct.AVRational }
%struct.AVPrimaryCoefficients = type { %struct.AVCIExy, %struct.AVCIExy, %struct.AVCIExy }
%struct.AVCIExy = type { %struct.AVRational, %struct.AVRational }
%struct.AVRational = type { i32, i32 }
%struct.Gamut = type { %struct.SwsMatrix3x3, %struct.SwsMatrix3x3, %struct.SwsMatrix3x3, %struct.SwsMatrix3x3, ptr, ptr, float, float, float, float, float, float, %struct.AVCIExy, %struct.ICh }
%struct.ICh = type { float, float, float }
%struct.SwsMatrix3x3 = type { [3 x [3 x float]] }
%struct.AVColorPrimariesDesc = type { %struct.AVCIExy, %struct.AVPrimaryCoefficients }

; Function Attrs: inlinehint nounwind uwtable
define internal float @pq_oetf(float noundef %0) #1 {
  %2 = alloca float, align 4
  store float %0, ptr %2, align 4, !tbaa !57
  %3 = load float, ptr %2, align 4, !tbaa !57
  %4 = fmul nsz float %3, 0x3F1A36E2E0000000
  %5 = call nsz float @llvm.maxnum.f32(float %4, float 0.000000e+00)
  %6 = call nsz float @llvm.pow.f32(float %5, float 0x3FC4640000000000)
  store float %6, ptr %2, align 4, !tbaa !57
  %7 = load float, ptr %2, align 4, !tbaa !57
  %8 = call nsz float @llvm.fmuladd.f32(float 0x4032DA0000000000, float %7, float 0x3FEAC00000000000)
  %9 = load float, ptr %2, align 4, !tbaa !57
  %10 = call nsz float @llvm.fmuladd.f32(float 1.868750e+01, float %9, float 1.000000e+00)
  %11 = fdiv nsz float %8, %10
  store float %11, ptr %2, align 4, !tbaa !57
  %12 = load float, ptr %2, align 4, !tbaa !57
  %13 = call nsz float @llvm.pow.f32(float %12, float 0x4053B60000000000)
  ret float %13
}

; Function Attrs: inlinehint nounwind uwtable
define internal double @av_q2d(i64 %0) #1 {
  %2 = alloca %struct.AVRational, align 4
  store i64 %0, ptr %2, align 4
  %3 = getelementptr inbounds nuw %struct.AVRational, ptr %2, i32 0, i32 0
  %4 = load i32, ptr %3, align 4, !tbaa !20
  %5 = sitofp i32 %4 to double
  %6 = getelementptr inbounds nuw %struct.AVRational, ptr %2, i32 0, i32 1
  %7 = load i32, ptr %6, align 4, !tbaa !21
  %8 = sitofp i32 %7 to double
  %9 = fdiv nsz double %5, %8
  ret double %9
}

; Function Attrs: nounwind uwtable
define internal void @gamut_from_colorspace(ptr dead_on_unwind noalias writable sret(%struct.Gamut) align 8 %0, ptr noundef byval(%struct.SwsColor) align 8 %1) #0 {
  %3 = alloca ptr, align 8
  %4 = alloca %struct.AVColorPrimariesDesc, align 4
  %5 = alloca float, align 4
  %6 = alloca float, align 4
  %7 = alloca float, align 4
  call void @llvm.lifetime.start.p0(i64 8, ptr %3) #13
  %8 = getelementptr inbounds nuw %struct.SwsColor, ptr %1, i32 0, i32 0
  %9 = load i32, ptr %8, align 8, !tbaa !69
  %10 = call ptr @av_csp_primaries_desc_from_id(i32 noundef %9)
  store ptr %10, ptr %3, align 8, !tbaa !70
  call void @llvm.lifetime.start.p0(i64 64, ptr %4) #13
  %11 = getelementptr inbounds nuw %struct.AVColorPrimariesDesc, ptr %4, i32 0, i32 0
  %12 = load ptr, ptr %3, align 8, !tbaa !70
  %13 = getelementptr inbounds nuw %struct.AVColorPrimariesDesc, ptr %12, i32 0, i32 0
  call void @llvm.memcpy.p0.p0.i64(ptr align 4 %11, ptr align 4 %13, i64 16, i1 false), !tbaa.struct !72
  %14 = getelementptr inbounds nuw %struct.AVColorPrimariesDesc, ptr %4, i32 0, i32 1
  %15 = getelementptr inbounds nuw %struct.SwsColor, ptr %1, i32 0, i32 2
  call void @llvm.memcpy.p0.p0.i64(ptr align 4 %14, ptr align 8 %15, i64 48, i1 false), !tbaa.struct !73
  call void @llvm.lifetime.start.p0(i64 4, ptr %5) #13
  %16 = getelementptr inbounds nuw %struct.SwsColor, ptr %1, i32 0, i32 4
  %17 = load i64, ptr %16, align 8
  %18 = call nsz double @av_q2d(i64 %17)
  %19 = fptrunc nsz double %18 to float
  store float %19, ptr %5, align 4, !tbaa !57
  call void @llvm.lifetime.start.p0(i64 4, ptr %6) #13
  %20 = getelementptr inbounds nuw %struct.SwsColor, ptr %1, i32 0, i32 3
  %21 = load i64, ptr %20, align 8
  %22 = call nsz double @av_q2d(i64 %21)
  %23 = fptrunc nsz double %22 to float
  store float %23, ptr %6, align 4, !tbaa !57
  call void @llvm.lifetime.start.p0(i64 4, ptr %7) #13
  %24 = load float, ptr %5, align 4, !tbaa !57
  %25 = call nsz float @pq_oetf(float noundef %24)
  store float %25, ptr %7, align 4, !tbaa !57
  %26 = getelementptr inbounds nuw %struct.Gamut, ptr %0, i32 0, i32 0
  %27 = load ptr, ptr %3, align 8, !tbaa !70
  call void @ff_sws_ipt_rgb2lms(ptr dead_on_unwind writable sret(%struct.SwsMatrix3x3) align 4 %26, ptr noundef %27)
  %28 = getelementptr inbounds nuw %struct.Gamut, ptr %0, i32 0, i32 1
  %29 = load ptr, ptr %3, align 8, !tbaa !70
  call void @ff_sws_ipt_lms2rgb(ptr dead_on_unwind writable sret(%struct.SwsMatrix3x3) align 4 %28, ptr noundef %29)
  %30 = getelementptr inbounds nuw %struct.Gamut, ptr %0, i32 0, i32 2
  call void @ff_sws_ipt_lms2rgb(ptr dead_on_unwind writable sret(%struct.SwsMatrix3x3) align 4 %30, ptr noundef %4)
  %31 = getelementptr inbounds nuw %struct.Gamut, ptr %0, i32 0, i32 3
  call void @ff_sws_ipt_rgb2lms(ptr dead_on_unwind writable sret(%struct.SwsMatrix3x3) align 4 %31, ptr noundef %4)
  %32 = getelementptr inbounds nuw %struct.Gamut, ptr %0, i32 0, i32 4
  %33 = getelementptr inbounds nuw %struct.SwsColor, ptr %1, i32 0, i32 1
  %34 = load i32, ptr %33, align 4, !tbaa !74
  %35 = call ptr @av_csp_itu_eotf(i32 noundef %34)
  store ptr %35, ptr %32, align 8, !tbaa !75
  %36 = getelementptr inbounds nuw %struct.Gamut, ptr %0, i32 0, i32 5
  %37 = getelementptr inbounds nuw %struct.SwsColor, ptr %1, i32 0, i32 1
  %38 = load i32, ptr %37, align 4, !tbaa !74
  %39 = call ptr @av_csp_itu_eotf_inv(i32 noundef %38)
  store ptr %39, ptr %36, align 8, !tbaa !76
  %40 = getelementptr inbounds nuw %struct.Gamut, ptr %0, i32 0, i32 6
  %41 = getelementptr inbounds nuw %struct.SwsColor, ptr %1, i32 0, i32 6
  %42 = getelementptr inbounds nuw %struct.AVRational, ptr %41, i32 0, i32 1
  %43 = load i32, ptr %42, align 4, !tbaa !77
  %44 = icmp ne i32 %43, 0
  br i1 %44, label %45, label %51

45:                                               ; preds = %2
  %46 = getelementptr inbounds nuw %struct.SwsColor, ptr %1, i32 0, i32 6
  %47 = load i64, ptr %46, align 8
  %48 = call nsz double @av_q2d(i64 %47)
  %49 = fptrunc nsz double %48 to float
  %50 = call nsz float @pq_oetf(float noundef %49)
  br label %52

51:                                               ; preds = %2
  br label %52

52:                                               ; preds = %51, %45
  %53 = phi nsz float [ %50, %45 ], [ 0.000000e+00, %51 ]
  store float %53, ptr %40, align 8, !tbaa !78
  %54 = getelementptr inbounds nuw %struct.Gamut, ptr %0, i32 0, i32 7
  %55 = getelementptr inbounds nuw %struct.SwsColor, ptr %1, i32 0, i32 5
  %56 = getelementptr inbounds nuw %struct.AVRational, ptr %55, i32 0, i32 1
  %57 = load i32, ptr %56, align 4, !tbaa !79
  %58 = icmp ne i32 %57, 0
  br i1 %58, label %59, label %65

59:                                               ; preds = %52
  %60 = getelementptr inbounds nuw %struct.SwsColor, ptr %1, i32 0, i32 5
  %61 = load i64, ptr %60, align 8
  %62 = call nsz double @av_q2d(i64 %61)
  %63 = fptrunc nsz double %62 to float
  %64 = call nsz float @pq_oetf(float noundef %63)
  br label %67

65:                                               ; preds = %52
  %66 = load float, ptr %7, align 4, !tbaa !57
  br label %67

67:                                               ; preds = %65, %59
  %68 = phi nsz float [ %64, %59 ], [ %66, %65 ]
  store float %68, ptr %54, align 4, !tbaa !80
  %69 = getelementptr inbounds nuw %struct.Gamut, ptr %0, i32 0, i32 8
  %70 = load float, ptr %6, align 4, !tbaa !57
  %71 = call nsz float @pq_oetf(float noundef %70)
  store float %71, ptr %69, align 8, !tbaa !81
  %72 = getelementptr inbounds nuw %struct.Gamut, ptr %0, i32 0, i32 9
  %73 = load float, ptr %7, align 4, !tbaa !57
  store float %73, ptr %72, align 4, !tbaa !82
  %74 = getelementptr inbounds nuw %struct.Gamut, ptr %0, i32 0, i32 10
  %75 = load float, ptr %6, align 4, !tbaa !57
  store float %75, ptr %74, align 8, !tbaa !83
  %76 = getelementptr inbounds nuw %struct.Gamut, ptr %0, i32 0, i32 11
  %77 = load float, ptr %5, align 4, !tbaa !57
  store float %77, ptr %76, align 4, !tbaa !84
  %78 = getelementptr inbounds nuw %struct.Gamut, ptr %0, i32 0, i32 12
  %79 = load ptr, ptr %3, align 8, !tbaa !70
  %80 = getelementptr inbounds nuw %struct.AVColorPrimariesDesc, ptr %79, i32 0, i32 0
  call void @llvm.memcpy.p0.p0.i64(ptr align 8 %78, ptr align 4 %80, i64 16, i1 false), !tbaa.struct !72
  %81 = getelementptr inbounds nuw %struct.Gamut, ptr %0, i32 0, i32 13
  call void @llvm.memset.p0.i64(ptr align 8 %81, i8 0, i64 12, i1 false)
  %82 = getelementptr i8, ptr %0, i64 212
  call void @llvm.memset.p0.i64(ptr align 4 %82, i8 0, i64 4, i1 false)
  call void @llvm.lifetime.end.p0(i64 4, ptr %7) #13
  call void @llvm.lifetime.end.p0(i64 4, ptr %6) #13
  call void @llvm.lifetime.end.p0(i64 4, ptr %5) #13
  call void @llvm.lifetime.end.p0(i64 64, ptr %4) #13
  call void @llvm.lifetime.end.p0(i64 8, ptr %3) #13
  ret void
}