; Function Attrs: nounwind uwtable
define internal fastcc void @gamut_from_colorspace(ptr dead_on_unwind noalias nonnull writable align 8 %0, ptr noundef readonly byval(%struct.SwsColor) align 8 captures(none) %1) unnamed_addr #0 {
  %3 = alloca %struct.AVColorPrimariesDesc, align 4
  %4 = load i32, ptr %1, align 8, !tbaa !50
  %5 = tail call ptr @av_csp_primaries_desc_from_id(i32 noundef %4) #14
  call void @llvm.lifetime.start.p0(i64 64, ptr nonnull %3) #14
  call void @llvm.memcpy.p0.p0.i64(ptr noundef nonnull align 4 dereferenceable(16) %3, ptr noundef nonnull align 4 dereferenceable(16) %5, i64 16, i1 false), !tbaa.struct !51
  %6 = getelementptr inbounds nuw i8, ptr %3, i64 16
  %7 = getelementptr inbounds nuw i8, ptr %1, i64 8
  call void @llvm.memcpy.p0.p0.i64(ptr noundef nonnull align 4 dereferenceable(48) %6, ptr noundef nonnull align 8 dereferenceable(48) %7, i64 48, i1 false), !tbaa.struct !52
  %8 = getelementptr inbounds nuw i8, ptr %1, i64 64
  %9 = load i64, ptr %8, align 8
  %.sroa.0.0.extract.trunc.i = trunc i64 %9 to i32
  %.sroa.2.0.extract.shift.i = lshr i64 %9, 32
  %.sroa.2.0.extract.trunc.i = trunc nuw i64 %.sroa.2.0.extract.shift.i to i32
  %10 = sitofp i32 %.sroa.0.0.extract.trunc.i to double
  %11 = sitofp i32 %.sroa.2.0.extract.trunc.i to double
  %12 = fdiv nsz double %10, %11
  %13 = fptrunc nsz double %12 to float
  %14 = getelementptr inbounds nuw i8, ptr %1, i64 56
  %15 = load i64, ptr %14, align 8
  %16 = fmul nsz float %13, 0x3F1A36E2E0000000
  %17 = tail call nsz float @llvm.maxnum.f32(float %16, float 0.000000e+00)
  %18 = tail call nsz float @llvm.pow.f32(float %17, float 0x3FC4640000000000)
  %19 = tail call nsz float @llvm.fmuladd.f32(float %18, float 0x4032DA0000000000, float 0x3FEAC00000000000)
  %20 = tail call nsz float @llvm.fmuladd.f32(float %18, float 1.868750e+01, float 1.000000e+00)
  %21 = fdiv nsz float %19, %20
  %22 = tail call nsz float @llvm.pow.f32(float %21, float 0x4053B60000000000)
  tail call void @ff_sws_ipt_rgb2lms(ptr dead_on_unwind nonnull writable sret(%struct.SwsMatrix3x3) align 4 %0, ptr noundef nonnull %5) #14
  %23 = getelementptr inbounds nuw i8, ptr %0, i64 36
  tail call void @ff_sws_ipt_lms2rgb(ptr dead_on_unwind nonnull writable sret(%struct.SwsMatrix3x3) align 4 %23, ptr noundef nonnull %5) #14
  %24 = getelementptr inbounds nuw i8, ptr %0, i64 72
  call void @ff_sws_ipt_lms2rgb(ptr dead_on_unwind nonnull writable sret(%struct.SwsMatrix3x3) align 4 %24, ptr noundef nonnull %3) #14
  %25 = getelementptr inbounds nuw i8, ptr %0, i64 108
  call void @ff_sws_ipt_rgb2lms(ptr dead_on_unwind nonnull writable sret(%struct.SwsMatrix3x3) align 4 %25, ptr noundef nonnull %3) #14
  %26 = getelementptr inbounds nuw i8, ptr %0, i64 144
  %27 = getelementptr inbounds nuw i8, ptr %1, i64 4
  %28 = load i32, ptr %27, align 4, !tbaa !53
  %29 = call ptr @av_csp_itu_eotf(i32 noundef %28) #14
  store ptr %29, ptr %26, align 8, !tbaa !54
  %30 = getelementptr inbounds nuw i8, ptr %0, i64 152
  %31 = call ptr @av_csp_itu_eotf_inv(i32 noundef %28) #14
  store ptr %31, ptr %30, align 8, !tbaa !55
  %32 = getelementptr inbounds nuw i8, ptr %0, i64 160
  %33 = getelementptr inbounds nuw i8, ptr %1, i64 84
  %34 = load i32, ptr %33, align 4, !tbaa !56
  %.not = icmp eq i32 %34, 0
  br i1 %.not, label %49, label %35

35:                                               ; preds = %2
  %36 = getelementptr inbounds nuw i8, ptr %1, i64 80
  %37 = load i64, ptr %36, align 8
  %.sroa.0.0.extract.trunc.i14 = trunc i64 %37 to i32
  %.sroa.2.0.extract.shift.i15 = lshr i64 %37, 32
  %.sroa.2.0.extract.trunc.i16 = trunc nuw i64 %.sroa.2.0.extract.shift.i15 to i32
  %38 = sitofp i32 %.sroa.0.0.extract.trunc.i14 to double
  %39 = sitofp i32 %.sroa.2.0.extract.trunc.i16 to double
  %40 = fdiv nsz double %38, %39
  %41 = fptrunc nsz double %40 to float
  %42 = fmul nsz float %41, 0x3F1A36E2E0000000
  %43 = call nsz float @llvm.maxnum.f32(float %42, float 0.000000e+00)
  %44 = call nsz float @llvm.pow.f32(float %43, float 0x3FC4640000000000)
  %45 = call nsz float @llvm.fmuladd.f32(float %44, float 0x4032DA0000000000, float 0x3FEAC00000000000)
  %46 = call nsz float @llvm.fmuladd.f32(float %44, float 1.868750e+01, float 1.000000e+00)
  %47 = fdiv nsz float %45, %46
  %48 = call nsz float @llvm.pow.f32(float %47, float 0x4053B60000000000)
  br label %49

49:                                               ; preds = %2, %35
  %50 = phi nsz float [ %48, %35 ], [ 0.000000e+00, %2 ]
  store float %50, ptr %32, align 8, !tbaa !57
  %51 = getelementptr inbounds nuw i8, ptr %1, i64 76
  %52 = load i32, ptr %51, align 4, !tbaa !58
  %.not10 = icmp eq i32 %52, 0
  br i1 %.not10, label %67, label %53

53:                                               ; preds = %49
  %54 = getelementptr inbounds nuw i8, ptr %1, i64 72
  %55 = load i64, ptr %54, align 8
  %.sroa.0.0.extract.trunc.i17 = trunc i64 %55 to i32
  %.sroa.2.0.extract.shift.i18 = lshr i64 %55, 32
  %.sroa.2.0.extract.trunc.i19 = trunc nuw i64 %.sroa.2.0.extract.shift.i18 to i32
  %56 = sitofp i32 %.sroa.0.0.extract.trunc.i17 to double
  %57 = sitofp i32 %.sroa.2.0.extract.trunc.i19 to double
  %58 = fdiv nsz double %56, %57
  %59 = fptrunc nsz double %58 to float
  %60 = fmul nsz float %59, 0x3F1A36E2E0000000
  %61 = call nsz float @llvm.maxnum.f32(float %60, float 0.000000e+00)
  %62 = call nsz float @llvm.pow.f32(float %61, float 0x3FC4640000000000)
  %63 = call nsz float @llvm.fmuladd.f32(float %62, float 0x4032DA0000000000, float 0x3FEAC00000000000)
  %64 = call nsz float @llvm.fmuladd.f32(float %62, float 1.868750e+01, float 1.000000e+00)
  %65 = fdiv nsz float %63, %64
  %66 = call nsz float @llvm.pow.f32(float %65, float 0x4053B60000000000)
  br label %67

67:                                               ; preds = %49, %53
  %68 = phi nsz float [ %66, %53 ], [ %22, %49 ]
  %.sroa.0.0.extract.trunc.i11 = trunc i64 %15 to i32
  %69 = sitofp i32 %.sroa.0.0.extract.trunc.i11 to double
  %.sroa.2.0.extract.shift.i12 = lshr i64 %15, 32
  %.sroa.2.0.extract.trunc.i13 = trunc nuw i64 %.sroa.2.0.extract.shift.i12 to i32
  %70 = sitofp i32 %.sroa.2.0.extract.trunc.i13 to double
  %71 = fdiv nsz double %69, %70
  %72 = getelementptr inbounds nuw i8, ptr %0, i64 164
  %73 = fptrunc nsz double %71 to float
  store float %68, ptr %72, align 4, !tbaa !59
  %74 = getelementptr inbounds nuw i8, ptr %0, i64 168
  %75 = fmul nsz float %73, 0x3F1A36E2E0000000
  %76 = call nsz float @llvm.maxnum.f32(float %75, float 0.000000e+00)
  %77 = call nsz float @llvm.pow.f32(float %76, float 0x3FC4640000000000)
  %78 = call nsz float @llvm.fmuladd.f32(float %77, float 0x4032DA0000000000, float 0x3FEAC00000000000)
  %79 = call nsz float @llvm.fmuladd.f32(float %77, float 1.868750e+01, float 1.000000e+00)
  %80 = fdiv nsz float %78, %79
  %81 = call nsz float @llvm.pow.f32(float %80, float 0x4053B60000000000)
  store float %81, ptr %74, align 8, !tbaa !60
  %82 = getelementptr inbounds nuw i8, ptr %0, i64 172
  store float %22, ptr %82, align 4, !tbaa !61
  %83 = getelementptr inbounds nuw i8, ptr %0, i64 176
  store float %73, ptr %83, align 8, !tbaa !62
  %84 = getelementptr inbounds nuw i8, ptr %0, i64 180
  store float %13, ptr %84, align 4, !tbaa !63
  %85 = getelementptr inbounds nuw i8, ptr %0, i64 184
  call void @llvm.memcpy.p0.p0.i64(ptr noundef nonnull align 8 dereferenceable(16) %85, ptr noundef nonnull align 4 dereferenceable(16) %5, i64 16, i1 false), !tbaa.struct !51
  %86 = getelementptr inbounds nuw i8, ptr %0, i64 200
  call void @llvm.memset.p0.i64(ptr noundef nonnull align 8 dereferenceable(16) %86, i8 0, i64 16, i1 false)
  call void @llvm.lifetime.end.p0(i64 64, ptr nonnull %3) #14
  ret void
}